; Function Attrs: mustprogress uwtable
define noundef zeroext i1 @_ZN4base18StatisticsRecorder8IsActiveEv() local_unnamed_addr #0 align 2 personality ptr @__gxx_personality_v0 {
  %1 = load ptr, ptr @_ZN4base18StatisticsRecorder5lock_E, align 8, !tbaa !26
  %2 = icmp eq ptr %1, null
  br i1 %2, label %_ZN4base8AutoLockD2Ev.exit, label %3

3:                                                ; preds = %0
  tail call void @_ZN4base8internal8LockImpl4LockEv(ptr noundef nonnull align 8 dereferenceable(40) %1)
  %4 = load ptr, ptr @_ZN4base18StatisticsRecorder11histograms_E, align 8, !tbaa !12
  %5 = icmp ne ptr %4, null
  invoke void @_ZN4base8internal8LockImpl6UnlockEv(ptr noundef nonnull align 8 dereferenceable(40) %1)
          to label %_ZN4base8AutoLockD2Ev.exit unwind label %6

6:                                                ; preds = %3
  %7 = landingpad { ptr, i32 }
          catch ptr null
  %8 = extractvalue { ptr, i32 } %7, 0
  tail call void @__clang_call_terminate(ptr %8) #23
  unreachable

_ZN4base8AutoLockD2Ev.exit:                       ; preds = %3, %0
  %.0 = phi i1 [ false, %0 ], [ %5, %3 ]
  ret i1 %.0
}